(dp0
(S'10003'
p1
S'right'
p2
tp3
F13.03853859156977
s(S'00111'
p4
g2
tp5
F-0.5
s(S'01002'
p6
Ntp7
F0.0
s(S'10023'
p8
S'forward'
p9
tp10
F-1.0
s(S'12003'
p11
g9
tp12
F-1.0
s(S'00233'
p13
S'left'
p14
tp15
F-0.5
s(S'00023'
p16
g2
tp17
F13.186309510621161
s(S'10202'
p18
Ntp19
F0.0
s(S'03101'
p20
g2
tp21
F-0.5
s(S'10301'
p22
g9
tp23
F-1.0
s(S'10101'
p24
Ntp25
F0.0
s(S'12102'
p26
g9
tp27
F-1.0
s(S'00101'
p28
g2
tp29
F-0.5
s(S'02001'
p30
g9
tp31
F11.780547898875286
s(S'10203'
p32
g2
tp33
F13.187436363431333
s(S'12003'
p34
Ntp35
F0.0
s(S'03022'
p36
g14
tp37
F-1.0
s(S'11003'
p38
Ntp39
F0.0
s(S'00301'
p40
Ntp41
F0.0
s(S'13002'
p42
g9
tp43
F-1.0
s(S'10001'
p44
g9
tp45
F-1.0
s(S'00222'
p46
g2
tp47
F-0.5
s(S'13002'
p48
Ntp49
F0.0
s(S'00231'
p50
g9
tp51
F12.0
s(S'10001'
p52
Ntp53
F0.0
s(S'00112'
p54
g2
tp55
F-0.5
s(S'03002'
p56
g9
tp57
F-0.5
s(S'10102'
p58
Ntp59
F0.0
s(S'10021'
p60
g9
tp61
F-1.0
s(S'00102'
p62
g9
tp63
F-0.5
s(S'10101'
p64
g9
tp65
F-1.0
s(S'11301'
p66
g14
tp67
F-1.0
s(S'13003'
p68
g9
tp69
F-1.0
s(S'10202'
p70
g2
tp71
F-0.5
s(S'10202'
p72
g9
tp73
F-1.0
s(S'10023'
p74
g2
tp75
F12.848277045321794
s(S'01013'
p76
g9
tp77
F-0.5
s(S'00011'
p78
g14
tp79
F-0.5
s(S'10303'
p80
g9
tp81
F-1.0
s(S'10011'
p82
g14
tp83
F-1.0
s(S'11002'
p84
g2
tp85
F10.518594692592094
s(S'00203'
p86
g2
tp87
F12.929640473737887
s(S'11001'
p88
g9
tp89
F-1.0
s(S'00203'
p90
g14
tp91
F-0.5
s(S'00113'
p92
g9
tp93
F-0.5
s(S'02202'
p94
Ntp95
F0.0
s(S'10032'
p96
g14
tp97
F-1.0
s(S'01002'
p98
g2
tp99
F10.887585249373581
s(S'10001'
p100
g2
tp101
F10.083681394636674
s(S'10213'
p102
Ntp103
F0.0
s(S'10022'
p104
g14
tp105
F-1.0
s(S'10303'
p106
Ntp107
F0.0
s(S'02003'
p108
Ntp109
F0.0
s(S'10202'
p110
g14
tp111
F-1.0
s(S'13001'
p112
Ntp113
F0.0
s(S'11001'
p114
Ntp115
F0.0
s(S'01021'
p116
g2
tp117
F-0.5
s(S'00121'
p118
Ntp119
F0.0
s(S'03021'
p120
g2
tp121
F-0.5
s(S'10303'
p122
g2
tp123
F13.13942585096091
s(S'01012'
p124
Ntp125
F0.0
s(S'10032'
p126
Ntp127
F0.0
s(S'11303'
p128
g14
tp129
F-1.0
s(S'01023'
p130
g9
tp131
F-0.5
s(S'00032'
p132
g9
tp133
F-0.5
s(S'10013'
p134
g14
tp135
F-1.0
s(S'00223'
p136
g9
tp137
F-0.5
s(S'00211'
p138
g9
tp139
F5.585832437596571
s(S'01301'
p140
Ntp141
F0.0
s(S'02012'
p142
g9
tp143
F-0.5
s(S'00303'
p144
g2
tp145
F12.705656435844821
s(S'11001'
p146
g14
tp147
F-1.0
s(S'10002'
p148
g14
tp149
F-1.0
s(S'00022'
p150
g14
tp151
F12.155963218274197
s(S'00202'
p152
Ntp153
F0.0
s(S'00032'
p154
g14
tp155
F10.956166345150939
s(S'00213'
p156
g2
tp157
F2.0
s(S'10301'
p158
Ntp159
F0.0
s(S'00103'
p160
Ntp161
F0.0
s(S'01003'
p162
Ntp163
F0.0
s(S'10103'
p164
g9
tp165
F-1.0
s(S'00003'
p166
g2
tp167
F13.00898413353055
s(S'10203'
p168
Ntp169
F0.0
s(S'01001'
p170
g9
tp171
F12.036403833740534
s(S'00001'
p172
g9
tp173
F12.66095149038411
s(S'12001'
p174
Ntp175
F0.0
s(S'12101'
p176
g14
tp177
F-1.0
s(S'02001'
p178
Ntp179
F0.0
s(S'13002'
p180
g14
tp181
F-1.0
s(S'01002'
p182
g9
tp183
F-0.5
s(S'10002'
p184
g2
tp185
F10.689890378910274
s(S'00022'
p186
g9
tp187
F-0.5
s(S'00123'
p188
g14
tp189
F-0.5
s(S'11001'
p190
g2
tp191
F8.186809272908054
s(S'03003'
p192
g14
tp193
F-1.0
s(S'02013'
p194
g9
tp195
F-0.5
s(S'00203'
p196
g9
tp197
F-0.5
s(S'00111'
p198
g14
tp199
F-0.5
s(S'00313'
p200
Ntp201
F0.0
s(S'12023'
p202
g9
tp203
F-1.0
s(S'11002'
p204
Ntp205
F0.0
s(S'03301'
p206
Ntp207
F0.0
s(S'10301'
p208
g14
tp209
F-1.0
s(S'00132'
p210
g14
tp211
F4.114604525919499
s(S'01003'
p212
g2
tp213
F13.093848413479368
s(S'03002'
p214
g14
tp215
F-1.0
s(S'00221'
p216
g14
tp217
F-0.5
s(S'02013'
p218
Ntp219
F0.0
s(S'02013'
p220
g14
tp221
F-0.5
s(S'10301'
p222
g2
tp223
F-0.5
s(S'01011'
p224
g2
tp225
F-0.5
s(S'00102'
p226
g14
tp227
F11.924371198673999
s(S'12001'
p228
g9
tp229
F-1.0
s(S'00113'
p230
g14
tp231
F-0.5
s(S'00102'
p232
Ntp233
F0.0
s(S'03023'
p234
Ntp235
F0.0
s(S'03001'
p236
g9
tp237
F9.872238449678845
s(S'12002'
p238
g9
tp239
F-1.0
s(S'03002'
p240
Ntp241
F0.0
s(S'10013'
p242
g9
tp243
F-1.0
s(S'00101'
p244
g9
tp245
F12.200131944331108
s(S'02021'
p246
g9
tp247
F11.891576089451693
s(S'00033'
p248
g2
tp249
F13.139920651541125
s(S'10302'
p250
Ntp251
F0.0
s(S'02002'
p252
Ntp253
F0.0
s(S'00112'
p254
Ntp255
F0.0
s(S'00003'
p256
g9
tp257
F-0.5
s(S'12003'
p258
g2
tp259
F13.451278455324076
s(S'10103'
p260
g2
tp261
F12.762087330481194
s(S'00101'
p262
Ntp263
F0.0
s(S'10031'
p264
g2
tp265
F-0.5
s(S'00201'
p266
g2
tp267
F-0.5
s(S'12002'
p268
g14
tp269
F-1.0
s(S'10022'
p270
Ntp271
F0.0
s(S'00201'
p272
g9
tp273
F11.97016283756875
s(S'10032'
p274
g2
tp275
F-0.5
s(S'00121'
p276
g9
tp277
F12.278417418854032
s(S'10021'
p278
g14
tp279
F-1.0
s(S'02301'
p280
g9
tp281
F2.0
s(S'12303'
p282
g2
tp283
F4.069961012549177
s(S'10011'
p284
g9
tp285
F-1.0
s(S'10012'
p286
g9
tp287
F-1.0
s(S'10122'
p288
g2
tp289
F-0.5
s(S'10201'
p290
g14
tp291
F-1.0
s(S'13001'
p292
g2
tp293
F9.866074134222908
s(S'10302'
p294
g2
tp295
F10.63059917891253
s(S'00301'
p296
g2
tp297
F-0.5
s(S'13002'
p298
g2
tp299
F-0.5
s(S'10013'
p300
g2
tp301
F-1.0
s(S'01033'
p302
g9
tp303
F-0.5
s(S'00031'
p304
g9
tp305
F12.00473165565197
s(S'11021'
p306
g9
tp307
F-1.0
s(S'10021'
p308
Ntp309
F0.0
s(S'13001'
p310
g14
tp311
F-1.0
s(S'10022'
p312
g9
tp313
F-1.0
s(S'11002'
p314
g9
tp315
F-1.0
s(S'00302'
p316
Ntp317
F0.0
s(S'11301'
p318
Ntp319
F0.0
s(S'11011'
p320
g2
tp321
F-1.0
s(S'01011'
p322
Ntp323
F0.0
s(S'10023'
p324
g14
tp325
F-1.0
s(S'00301'
p326
g14
tp327
F-0.5
s(S'10022'
p328
g2
tp329
F-0.5
s(S'02101'
p330
g2
tp331
F-0.5
s(S'10201'
p332
g2
tp333
F-0.5
s(S'01002'
p334
g14
tp335
F-1.0
s(S'10203'
p336
g14
tp337
F-1.0
s(S'00031'
p338
g2
tp339
F-0.5
s(S'10102'
p340
g2
tp341
F-0.5
s(S'00011'
p342
g9
tp343
F12.316249751955983
s(S'10203'
p344
g9
tp345
F-1.0
s(S'10013'
p346
Ntp347
F0.0
s(S'10101'
p348
g14
tp349
F-1.0
s(S'00301'
p350
g9
tp351
F11.775461232618145
s(S'10121'
p352
Ntp353
F0.0
s(S'10302'
p354
g9
tp355
F-1.0
s(S'10012'
p356
g14
tp357
F-1.0
s(S'00102'
p358
g2
tp359
F-0.5
s(S'12202'
p360
Ntp361
F0.0
s(S'00123'
p362
Ntp363
F0.0
s(S'00302'
p364
g14
tp365
F11.516125125040816
s(S'00223'
p366
Ntp367
F0.0
s(S'03002'
p368
g2
tp369
F-0.5
s(S'12302'
p370
g2
tp371
F-0.5
s(S'03001'
p372
Ntp373
F0.0
s(S'00022'
p374
g2
tp375
F-0.5
s(S'10032'
p376
g9
tp377
F-1.0
s(S'10002'
p378
g9
tp379
F-1.0
s(S'00021'
p380
g14
tp381
F-0.5
s(S'01202'
p382
g14
tp383
F-1.0
s(S'00303'
p384
g14
tp385
F-0.5
s(S'01022'
p386
g14
tp387
F-1.0
s(S'01202'
p388
g9
tp389
F-0.5
s(S'02022'
p390
Ntp391
F0.0
s(S'00002'
p392
g14
tp393
F11.633225040216152
s(S'10011'
p394
g2
tp395
F-1.0
s(S'00012'
p396
g14
tp397
F12.182131218364802
s(S'12013'
p398
g9
tp399
F-1.0
s(S'00013'
p400
g2
tp401
F12.814343623718512
s(S'00202'
p402
g14
tp403
F12.567217330016202
s(S'11101'
p404
Ntp405
F0.0
s(S'11102'
p406
g14
tp407
F-1.0
s(S'00212'
p408
g9
tp409
F-0.5
s(S'00023'
p410
g9
tp411
F-0.5
s(S'10102'
p412
g14
tp413
F-1.0
s(S'12002'
p414
g2
tp415
F10.79823905752592
s(S'11002'
p416
g14
tp417
F-1.0
s(S'10031'
p418
g14
tp419
F-1.0
s(S'10001'
p420
g14
tp421
F-1.0
s(S'10011'
p422
Ntp423
F0.0
s(S'00023'
p424
g14
tp425
F-0.5
s(S'12032'
p426
Ntp427
F0.0
s(S'00032'
p428
g2
tp429
F-0.5
s(S'12001'
p430
g2
tp431
F9.908803039379796
s(S'00022'
p432
Ntp433
F0.0
s(S'00111'
p434
Ntp435
F0.0
s(S'10002'
p436
Ntp437
F0.0
s(S'10102'
p438
g9
tp439
F-1.0
s(S'00103'
p440
g2
tp441
F12.983307148200439
s(S'02003'
p442
g2
tp443
F13.161023059090512
s(S'10201'
p444
g9
tp445
F-1.0
s(S'03021'
p446
g14
tp447
F-1.0
s(S'03003'
p448
g2
tp449
F12.218568668778722
s(S'12002'
p450
Ntp451
F0.0
s(S'00222'
p452
Ntp453
F0.0
s(S'01003'
p454
g9
tp455
F-0.5
s(S'10033'
p456
g2
tp457
F12.754617811879184
s(S'00021'
p458
g9
tp459
F11.90343205613296
s(S'00122'
p460
g14
tp461
F2.0
s(S'10012'
p462
g2
tp463
F-1.0
s(S'12001'
p464
g14
tp465
F-1.0
s(S'11102'
p466
Ntp467
F0.0
s(S'10201'
p468
Ntp469
F0.0
s(S'02023'
p470
Ntp471
F0.0
s(S'00321'
p472
g14
tp473
F-0.5
s(S'10101'
p474
g2
tp475
F-0.5
s(S'10021'
p476
g2
tp477
F7.294588261892885
s(S'03301'
p478
g2
tp479
F-0.5
s(S'01013'
p480
g2
tp481
F2.0
s(S'00313'
p482
g14
tp483
F-0.5
s(S'10302'
p484
g14
tp485
F-1.0
s(S'00311'
p486
g2
tp487
F-0.5
s(S'02002'
p488
g14
tp489
F12.633989686874983
s(S'13003'
p490
g2
tp491
F13.154313446940673
s(S'11203'
p492
g2
tp493
F2.0
s(S'03011'
p494
Ntp495
F0.0
s(S'13001'
p496
g9
tp497
F-1.0
s(S'02101'
p498
g14
tp499
F-0.5
s(S'00101'
p500
g14
tp501
F-0.5
s(S'02023'
p502
g14
tp503
F-0.5
s(S'00123'
p504
g9
tp505
F-0.5
s(S'00121'
p506
g2
tp507
F-0.5
s(S'10031'
p508
Ntp509
F0.0
s(S'10012'
p510
Ntp511
F0.0
s(S'02013'
p512
g2
tp513
F5.641471495361509
s(S'11003'
p514
g2
tp515
F13.04718049763506
s(S'12003'
p516
g14
tp517
F-1.0
s(S'10031'
p518
g9
tp519
F-1.0
s.